target datalayout = "e-m:e-p270:32:32-p271:32:32-p272:64:64-i64:64-i128:128-f80:128-n8:16:32:64-S128"
target triple = "x86_64-pc-linux-gnu"

%struct.H5FD_srt_tmp_t = type { i64, i64 }

@H5FD_init_g = external global i8, align 1
@H5_libterm_g = external global i8, align 1
@.str = private unnamed_addr constant [101 x i8] c"generated/home/dtcxzyw/WorkSpace/Projects/compilers/llvm-opt-benchmark/bench/hdf5/hdf5/src/H5FDint.c\00", align 1
@H5E_ARGS_g = external global i64, align 8
@H5E_RESOURCE_g = external global i64, align 8
@H5E_CANTALLOC_g = external global i64, align 8
@H5E_BADVALUE_g = external global i64, align 8
@__func__.H5FD__sort_io_req_real = private unnamed_addr constant [23 x i8] c"H5FD__sort_io_req_real\00", align 1
@.str.61 = private unnamed_addr constant [29 x i8] c"duplicate addr in selections\00", align 1
@.str.62 = private unnamed_addr constant [20 x i8] c"can't alloc srt_tmp\00", align 1
@.str.63 = private unnamed_addr constant [25 x i8] c"duplicate addrs in array\00", align 1

; Function Attrs: nounwind uwtable
define internal i32 @H5FD__sort_io_req_real(i64 noundef %0, ptr noundef %1, ptr noundef %2, ptr noundef %3) #0 {
  %5 = alloca i32, align 4
  %6 = alloca i64, align 8
  %7 = alloca ptr, align 8
  %8 = alloca ptr, align 8
  %9 = alloca ptr, align 8
  %10 = alloca i64, align 8
  %11 = alloca i32, align 4
  %12 = alloca i8, align 1
  %13 = alloca i64, align 8
  %14 = alloca i32, align 4
  store i64 %0, ptr %6, align 8, !tbaa !10
  store ptr %1, ptr %7, align 8, !tbaa !8
  store ptr %2, ptr %8, align 8, !tbaa !78
  store ptr %3, ptr %9, align 8, !tbaa !90
  call void @llvm.lifetime.start.p0(i64 8, ptr %10) #8
  call void @llvm.lifetime.start.p0(i64 4, ptr %11) #8
  store i32 0, ptr %11, align 4, !tbaa !12
  call void @llvm.lifetime.start.p0(i64 1, ptr %12) #8
  store i8 0, ptr %12, align 1, !tbaa !14
  %15 = load i8, ptr @H5FD_init_g, align 1, !tbaa !14, !range !16, !noundef !17
  %16 = trunc i8 %15 to i1
  br i1 %16, label %21, label %17

17:                                               ; preds = %4
  %18 = load i8, ptr @H5_libterm_g, align 1, !tbaa !14, !range !16, !noundef !17
  %19 = trunc i8 %18 to i1
  %20 = xor i1 %19, true
  br label %21

21:                                               ; preds = %17, %4
  %22 = phi i1 [ true, %4 ], [ %20, %17 ]
  %23 = xor i1 %22, true
  %24 = xor i1 %23, true
  %25 = zext i1 %24 to i32
  %26 = sext i32 %25 to i64
  %27 = call i64 @llvm.expect.i64(i64 %26, i64 1)
  %28 = icmp ne i64 %27, 0
  br i1 %28, label %29, label %218

29:                                               ; preds = %21
  store i64 1, ptr %10, align 8, !tbaa !10
  br label %30

30:                                               ; preds = %98, %29
  %31 = load i64, ptr %10, align 8, !tbaa !10
  %32 = load i64, ptr %6, align 8, !tbaa !10
  %33 = icmp ult i64 %31, %32
  br i1 %33, label %34, label %101

34:                                               ; preds = %30
  %35 = load ptr, ptr %7, align 8, !tbaa !8
  %36 = load i64, ptr %10, align 8, !tbaa !10
  %37 = sub i64 %36, 1
  %38 = getelementptr inbounds nuw i64, ptr %35, i64 %37
  %39 = load i64, ptr %38, align 8, !tbaa !10
  %40 = icmp ne i64 %39, -1
  br i1 %40, label %41, label %59

41:                                               ; preds = %34
  %42 = load ptr, ptr %7, align 8, !tbaa !8
  %43 = load i64, ptr %10, align 8, !tbaa !10
  %44 = getelementptr inbounds nuw i64, ptr %42, i64 %43
  %45 = load i64, ptr %44, align 8, !tbaa !10
  %46 = icmp ne i64 %45, -1
  br i1 %46, label %47, label %59

47:                                               ; preds = %41
  %48 = load ptr, ptr %7, align 8, !tbaa !8
  %49 = load i64, ptr %10, align 8, !tbaa !10
  %50 = sub i64 %49, 1
  %51 = getelementptr inbounds nuw i64, ptr %48, i64 %50
  %52 = load i64, ptr %51, align 8, !tbaa !10
  %53 = load ptr, ptr %7, align 8, !tbaa !8
  %54 = load i64, ptr %10, align 8, !tbaa !10
  %55 = getelementptr inbounds nuw i64, ptr %53, i64 %54
  %56 = load i64, ptr %55, align 8, !tbaa !10
  %57 = icmp ugt i64 %52, %56
  br i1 %57, label %58, label %59

58:                                               ; preds = %47
  br label %101

59:                                               ; preds = %47, %41, %34
  %60 = load ptr, ptr %7, align 8, !tbaa !8
  %61 = load i64, ptr %10, align 8, !tbaa !10
  %62 = sub i64 %61, 1
  %63 = getelementptr inbounds nuw i64, ptr %60, i64 %62
  %64 = load i64, ptr %63, align 8, !tbaa !10
  %65 = icmp ne i64 %64, -1
  br i1 %65, label %66, label %96

66:                                               ; preds = %59
  %67 = load ptr, ptr %7, align 8, !tbaa !8
  %68 = load i64, ptr %10, align 8, !tbaa !10
  %69 = sub i64 %68, 1
  %70 = getelementptr inbounds nuw i64, ptr %67, i64 %69
  %71 = load i64, ptr %70, align 8, !tbaa !10
  %72 = load ptr, ptr %7, align 8, !tbaa !8
  %73 = load i64, ptr %10, align 8, !tbaa !10
  %74 = getelementptr inbounds nuw i64, ptr %72, i64 %73
  %75 = load i64, ptr %74, align 8, !tbaa !10
  %76 = icmp eq i64 %71, %75
  br i1 %76, label %77, label %96

77:                                               ; preds = %66
  br label %78

78:                                               ; preds = %77
  br label %79

79:                                               ; preds = %78
  br label %80

80:                                               ; preds = %79
  %81 = load i64, ptr @H5E_ARGS_g, align 8, !tbaa !10
  %82 = load i64, ptr @H5E_BADVALUE_g, align 8, !tbaa !10
  %83 = call i32 (ptr, ptr, i32, i64, i64, ptr, ...) @H5E_printf_stack(ptr noundef @.str, ptr noundef @__func__.H5FD__sort_io_req_real, i32 noundef 2626, i64 noundef %81, i64 noundef %82, ptr noundef @.str.61)
  br label %84

84:                                               ; preds = %80
  br label %85

85:                                               ; preds = %84
  store i8 1, ptr %12, align 1, !tbaa !14
  %86 = load i8, ptr %12, align 1, !tbaa !14, !range !16, !noundef !17
  %87 = trunc i8 %86 to i1
  %88 = zext i1 %87 to i8
  store i8 %88, ptr %12, align 1, !tbaa !14
  br label %89

89:                                               ; preds = %85
  br label %90

90:                                               ; preds = %89
  br label %91

91:                                               ; preds = %90
  store i32 -1, ptr %11, align 4, !tbaa !12
  br label %217

92:                                               ; No predecessors!
  br label %93

93:                                               ; preds = %92
  br label %94

94:                                               ; preds = %93
  br label %95

95:                                               ; preds = %94
  br label %96

96:                                               ; preds = %95, %66, %59
  br label %97

97:                                               ; preds = %96
  br label %98

98:                                               ; preds = %97
  %99 = load i64, ptr %10, align 8, !tbaa !10
  %100 = add i64 %99, 1
  store i64 %100, ptr %10, align 8, !tbaa !10
  br label %30, !llvm.loop !92

101:                                              ; preds = %58, %30
  %102 = load i64, ptr %10, align 8, !tbaa !10
  %103 = load i64, ptr %6, align 8, !tbaa !10
  %104 = icmp uge i64 %102, %103
  br i1 %104, label %105, label %107

105:                                              ; preds = %101
  %106 = load ptr, ptr %8, align 8, !tbaa !78
  store i8 1, ptr %106, align 1, !tbaa !14
  br label %109

107:                                              ; preds = %101
  %108 = load ptr, ptr %8, align 8, !tbaa !78
  store i8 0, ptr %108, align 1, !tbaa !14
  br label %109

109:                                              ; preds = %107, %105
  %110 = load ptr, ptr %8, align 8, !tbaa !78
  %111 = load i8, ptr %110, align 1, !tbaa !14, !range !16, !noundef !17
  %112 = trunc i8 %111 to i1
  br i1 %112, label %216, label %113

113:                                              ; preds = %109
  call void @llvm.lifetime.start.p0(i64 8, ptr %13) #8
  %114 = load i64, ptr %6, align 8, !tbaa !10
  %115 = mul i64 %114, 16
  store i64 %115, ptr %13, align 8, !tbaa !10
  %116 = load i64, ptr %13, align 8, !tbaa !10
  %117 = call noalias ptr @malloc(i64 noundef %116) #10
  %118 = load ptr, ptr %9, align 8, !tbaa !90
  store ptr %117, ptr %118, align 8, !tbaa !82
  %119 = icmp eq ptr null, %117
  br i1 %119, label %120, label %139

120:                                              ; preds = %113
  br label %121

121:                                              ; preds = %120
  br label %122

122:                                              ; preds = %121
  br label %123

123:                                              ; preds = %122
  %124 = load i64, ptr @H5E_RESOURCE_g, align 8, !tbaa !10
  %125 = load i64, ptr @H5E_CANTALLOC_g, align 8, !tbaa !10
  %126 = call i32 (ptr, ptr, i32, i64, i64, ptr, ...) @H5E_printf_stack(ptr noundef @.str, ptr noundef @__func__.H5FD__sort_io_req_real, i32 noundef 2643, i64 noundef %124, i64 noundef %125, ptr noundef @.str.62)
  br label %127

127:                                              ; preds = %123
  br label %128

128:                                              ; preds = %127
  store i8 1, ptr %12, align 1, !tbaa !14
  %129 = load i8, ptr %12, align 1, !tbaa !14, !range !16, !noundef !17
  %130 = trunc i8 %129 to i1
  %131 = zext i1 %130 to i8
  store i8 %131, ptr %12, align 1, !tbaa !14
  br label %132

132:                                              ; preds = %128
  br label %133

133:                                              ; preds = %132
  br label %134

134:                                              ; preds = %133
  store i32 -1, ptr %11, align 4, !tbaa !12
  store i32 13, ptr %14, align 4
  br label %213

135:                                              ; No predecessors!
  br label %136

136:                                              ; preds = %135
  br label %137

137:                                              ; preds = %136
  br label %138

138:                                              ; preds = %137
  br label %139

139:                                              ; preds = %138, %113
  store i64 0, ptr %10, align 8, !tbaa !10
  br label %140

140:                                              ; preds = %160, %139
  %141 = load i64, ptr %10, align 8, !tbaa !10
  %142 = load i64, ptr %6, align 8, !tbaa !10
  %143 = icmp ult i64 %141, %142
  br i1 %143, label %144, label %163

144:                                              ; preds = %140
  %145 = load ptr, ptr %7, align 8, !tbaa !8
  %146 = load i64, ptr %10, align 8, !tbaa !10
  %147 = getelementptr inbounds nuw i64, ptr %145, i64 %146
  %148 = load i64, ptr %147, align 8, !tbaa !10
  %149 = load ptr, ptr %9, align 8, !tbaa !90
  %150 = load ptr, ptr %149, align 8, !tbaa !82
  %151 = load i64, ptr %10, align 8, !tbaa !10
  %152 = getelementptr inbounds nuw %struct.H5FD_srt_tmp_t, ptr %150, i64 %151
  %153 = getelementptr inbounds nuw %struct.H5FD_srt_tmp_t, ptr %152, i32 0, i32 0
  store i64 %148, ptr %153, align 8, !tbaa !93
  %154 = load i64, ptr %10, align 8, !tbaa !10
  %155 = load ptr, ptr %9, align 8, !tbaa !90
  %156 = load ptr, ptr %155, align 8, !tbaa !82
  %157 = load i64, ptr %10, align 8, !tbaa !10
  %158 = getelementptr inbounds nuw %struct.H5FD_srt_tmp_t, ptr %156, i64 %157
  %159 = getelementptr inbounds nuw %struct.H5FD_srt_tmp_t, ptr %158, i32 0, i32 1
  store i64 %154, ptr %159, align 8, !tbaa !85
  br label %160

160:                                              ; preds = %144
  %161 = load i64, ptr %10, align 8, !tbaa !10
  %162 = add i64 %161, 1
  store i64 %162, ptr %10, align 8, !tbaa !10
  br label %140, !llvm.loop !94

163:                                              ; preds = %140
  %164 = load ptr, ptr %9, align 8, !tbaa !90
  %165 = load ptr, ptr %164, align 8, !tbaa !82
  %166 = load i64, ptr %6, align 8, !tbaa !10
  call void @qsort(ptr noundef %165, i64 noundef %166, i64 noundef 16, ptr noundef @H5FD__srt_tmp_cmp)
  store i64 1, ptr %10, align 8, !tbaa !10
  store i64 1, ptr %10, align 8, !tbaa !10
  br label %167

167:                                              ; preds = %209, %163
  %168 = load i64, ptr %10, align 8, !tbaa !10
  %169 = load i64, ptr %6, align 8, !tbaa !10
  %170 = icmp ult i64 %168, %169
  br i1 %170, label %171, label %212

171:                                              ; preds = %167
  %172 = load ptr, ptr %7, align 8, !tbaa !8
  %173 = load i64, ptr %10, align 8, !tbaa !10
  %174 = sub i64 %173, 1
  %175 = getelementptr inbounds nuw i64, ptr %172, i64 %174
  %176 = load i64, ptr %175, align 8, !tbaa !10
  %177 = icmp ne i64 %176, -1
  br i1 %177, label %178, label %208

178:                                              ; preds = %171
  %179 = load ptr, ptr %7, align 8, !tbaa !8
  %180 = load i64, ptr %10, align 8, !tbaa !10
  %181 = sub i64 %180, 1
  %182 = getelementptr inbounds nuw i64, ptr %179, i64 %181
  %183 = load i64, ptr %182, align 8, !tbaa !10
  %184 = load ptr, ptr %7, align 8, !tbaa !8
  %185 = load i64, ptr %10, align 8, !tbaa !10
  %186 = getelementptr inbounds nuw i64, ptr %184, i64 %185
  %187 = load i64, ptr %186, align 8, !tbaa !10
  %188 = icmp eq i64 %183, %187
  br i1 %188, label %189, label %208

189:                                              ; preds = %178
  br label %190

190:                                              ; preds = %189
  br label %191

191:                                              ; preds = %190
  br label %192

192:                                              ; preds = %191
  %193 = load i64, ptr @H5E_ARGS_g, align 8, !tbaa !10
  %194 = load i64, ptr @H5E_BADVALUE_g, align 8, !tbaa !10
  %195 = call i32 (ptr, ptr, i32, i64, i64, ptr, ...) @H5E_printf_stack(ptr noundef @.str, ptr noundef @__func__.H5FD__sort_io_req_real, i32 noundef 2660, i64 noundef %193, i64 noundef %194, ptr noundef @.str.63)
  br label %196

196:                                              ; preds = %192
  br label %197

197:                                              ; preds = %196
  store i8 1, ptr %12, align 1, !tbaa !14
  %198 = load i8, ptr %12, align 1, !tbaa !14, !range !16, !noundef !17
  %199 = trunc i8 %198 to i1
  %200 = zext i1 %199 to i8
  store i8 %200, ptr %12, align 1, !tbaa !14
  br label %201

201:                                              ; preds = %197
  br label %202

202:                                              ; preds = %201
  br label %203

203:                                              ; preds = %202
  store i32 -1, ptr %11, align 4, !tbaa !12
  store i32 13, ptr %14, align 4
  br label %213

204:                                              ; No predecessors!
  br label %205

205:                                              ; preds = %204
  br label %206

206:                                              ; preds = %205
  br label %207

207:                                              ; preds = %206
  br label %208

208:                                              ; preds = %207, %178, %171
  br label %209

209:                                              ; preds = %208
  %210 = load i64, ptr %10, align 8, !tbaa !10
  %211 = add i64 %210, 1
  store i64 %211, ptr %10, align 8, !tbaa !10
  br label %167, !llvm.loop !95

212:                                              ; preds = %167
  store i32 0, ptr %14, align 4
  br label %213

213:                                              ; preds = %203, %134, %212
  call void @llvm.lifetime.end.p0(i64 8, ptr %13) #8
  %214 = load i32, ptr %14, align 4
  switch i32 %214, label %220 [
    i32 0, label %215
    i32 13, label %217
  ]

215:                                              ; preds = %213
  br label %216

216:                                              ; preds = %215, %109
  br label %217

217:                                              ; preds = %216, %213, %91
  br label %218

218:                                              ; preds = %217, %21
  %219 = load i32, ptr %11, align 4, !tbaa !12
  store i32 %219, ptr %5, align 4
  store i32 1, ptr %14, align 4
  br label %220

220:                                              ; preds = %218, %213
  call void @llvm.lifetime.end.p0(i64 1, ptr %12) #8
  call void @llvm.lifetime.end.p0(i64 4, ptr %11) #8
  call void @llvm.lifetime.end.p0(i64 8, ptr %10) #8
  %221 = load i32, ptr %5, align 4
  ret i32 %221
}