; Function Attrs: nounwind uwtable
define internal fastcc range(i32 -1, 1) i32 @H5FD__sort_io_req_real(i64 noundef %0, ptr noundef readonly captures(none) %1, ptr noundef writeonly captures(none) %2, ptr noundef nonnull writeonly captures(none) %3) unnamed_addr #0 {
  %5 = load i8, ptr @H5FD_init_g, align 1, !tbaa !3, !range !7, !noundef !8
  %6 = trunc nuw i8 %5 to i1
  %7 = load i8, ptr @H5_libterm_g, align 1, !range !7
  %8 = trunc nuw i8 %7 to i1
  %9 = xor i1 %8, true
  %10 = select i1 %6, i1 true, i1 %9
  br i1 %10, label %.preheader66, label %.loopexit, !prof !9

.preheader66:                                     ; preds = %4
  %11 = icmp ugt i64 %0, 1
  br i1 %11, label %.lr.ph, label %.thread64

.thread64:                                        ; preds = %.thread, %.preheader66
  store i8 1, ptr %2, align 1, !tbaa !3
  br label %.loopexit

.lr.ph:                                           ; preds = %.preheader66, %.thread
  %.05367 = phi i64 [ %24, %.thread ], [ 1, %.preheader66 ]
  %12 = getelementptr i64, ptr %1, i64 %.05367
  %13 = getelementptr i8, ptr %12, i64 -8
  %14 = load i64, ptr %13, align 8, !tbaa !10
  %.not = icmp eq i64 %14, -1
  br i1 %.not, label %.thread, label %15

15:                                               ; preds = %.lr.ph
  %16 = load i64, ptr %12, align 8, !tbaa !10
  %17 = icmp ugt i64 %14, %16
  br i1 %17, label %25, label %18

18:                                               ; preds = %15
  %19 = icmp eq i64 %14, %16
  br i1 %19, label %20, label %.thread

20:                                               ; preds = %18
  %21 = load i64, ptr @H5E_ARGS_g, align 8, !tbaa !10
  %22 = load i64, ptr @H5E_BADVALUE_g, align 8, !tbaa !10
  %23 = tail call i32 (ptr, ptr, i32, i64, i64, ptr, ...) @H5E_printf_stack(ptr noundef nonnull @.str, ptr noundef nonnull @__func__.H5FD__sort_io_req_real, i32 noundef 2626, i64 noundef %21, i64 noundef %22, ptr noundef nonnull @.str.61) #12
  br label %.loopexit

.thread:                                          ; preds = %.lr.ph, %18
  %24 = add nuw i64 %.05367, 1
  %exitcond.not = icmp eq i64 %24, %0
  br i1 %exitcond.not, label %.thread64, label %.lr.ph, !llvm.loop !79

25:                                               ; preds = %15
  store i8 0, ptr %2, align 1, !tbaa !3
  %26 = shl i64 %0, 4
  %27 = tail call noalias ptr @malloc(i64 noundef %26) #13
  store ptr %27, ptr %3, align 8, !tbaa !70
  %28 = icmp eq ptr %27, null
  br i1 %28, label %29, label %.preheader

29:                                               ; preds = %25
  %30 = load i64, ptr @H5E_RESOURCE_g, align 8, !tbaa !10
  %31 = load i64, ptr @H5E_CANTALLOC_g, align 8, !tbaa !10
  %32 = tail call i32 (ptr, ptr, i32, i64, i64, ptr, ...) @H5E_printf_stack(ptr noundef nonnull @.str, ptr noundef nonnull @__func__.H5FD__sort_io_req_real, i32 noundef 2643, i64 noundef %30, i64 noundef %31, ptr noundef nonnull @.str.62) #12
  br label %.loopexit

.preheader:                                       ; preds = %25, %.preheader
  %.15468 = phi i64 [ %37, %.preheader ], [ 0, %25 ]
  %33 = getelementptr inbounds nuw i64, ptr %1, i64 %.15468
  %34 = load i64, ptr %33, align 8, !tbaa !10
  %35 = getelementptr inbounds nuw %struct.H5FD_srt_tmp_t, ptr %27, i64 %.15468
  store i64 %34, ptr %35, align 8, !tbaa !80
  %36 = getelementptr inbounds nuw %struct.H5FD_srt_tmp_t, ptr %27, i64 %.15468, i32 1
  store i64 %.15468, ptr %36, align 8, !tbaa !75
  %37 = add nuw i64 %.15468, 1
  %exitcond71.not = icmp eq i64 %37, %0
  br i1 %exitcond71.not, label %.lr.ph70.preheader, label %.preheader, !llvm.loop !81

.lr.ph70.preheader:                               ; preds = %.preheader
  tail call void @qsort(ptr noundef nonnull %27, i64 noundef %0, i64 noundef 16, ptr noundef nonnull @H5FD__srt_tmp_cmp) #12
  br label %.lr.ph70

.lr.ph70:                                         ; preds = %.lr.ph70.preheader, %48
  %.269 = phi i64 [ %49, %48 ], [ 1, %.lr.ph70.preheader ]
  %38 = getelementptr i64, ptr %1, i64 %.269
  %39 = getelementptr i8, ptr %38, i64 -8
  %40 = load i64, ptr %39, align 8, !tbaa !10
  %.not63 = icmp eq i64 %40, -1
  br i1 %.not63, label %48, label %41

41:                                               ; preds = %.lr.ph70
  %42 = load i64, ptr %38, align 8, !tbaa !10
  %43 = icmp eq i64 %40, %42
  br i1 %43, label %44, label %48

44:                                               ; preds = %41
  %45 = load i64, ptr @H5E_ARGS_g, align 8, !tbaa !10
  %46 = load i64, ptr @H5E_BADVALUE_g, align 8, !tbaa !10
  %47 = tail call i32 (ptr, ptr, i32, i64, i64, ptr, ...) @H5E_printf_stack(ptr noundef nonnull @.str, ptr noundef nonnull @__func__.H5FD__sort_io_req_real, i32 noundef 2660, i64 noundef %45, i64 noundef %46, ptr noundef nonnull @.str.63) #12
  br label %.loopexit

48:                                               ; preds = %.lr.ph70, %41
  %49 = add nuw i64 %.269, 1
  %exitcond72.not = icmp eq i64 %49, %0
  br i1 %exitcond72.not, label %.loopexit, label %.lr.ph70, !llvm.loop !82

.loopexit:                                        ; preds = %48, %.thread64, %29, %44, %4, %20
  %.051 = phi i32 [ -1, %20 ], [ 0, %4 ], [ -1, %29 ], [ -1, %44 ], [ 0, %.thread64 ], [ 0, %48 ]
  ret i32 %.051
}